target datalayout = "e-m:e-p270:32:32-p271:32:32-p272:64:64-i64:64-i128:128-f80:128-n8:16:32:64-S128"
target triple = "x86_64-pc-linux-gnu"

%"class.std::__cxx11::basic_string" = type { %"struct.std::__cxx11::basic_string<char>::_Alloc_hider", i64, %union.anon }
%"struct.std::__cxx11::basic_string<char>::_Alloc_hider" = type { ptr }
%union.anon = type { i64, [8 x i8] }
%"class.std::vector" = type { %"struct.std::_Vector_base" }
%"struct.std::_Vector_base" = type { %"struct.std::_Vector_base<std::__cxx11::basic_string<char>, std::allocator<std::__cxx11::basic_string<char>>>::_Vector_impl" }
%"struct.std::_Vector_base<std::__cxx11::basic_string<char>, std::allocator<std::__cxx11::basic_string<char>>>::_Vector_impl" = type { %"struct.std::_Vector_base<std::__cxx11::basic_string<char>, std::allocator<std::__cxx11::basic_string<char>>>::_Vector_impl_data" }
%"struct.std::_Vector_base<std::__cxx11::basic_string<char>, std::allocator<std::__cxx11::basic_string<char>>>::_Vector_impl_data" = type { ptr, ptr, ptr }

; Function Attrs: mustprogress nounwind uwtable
define available_externally noundef i64 @_ZNKSt7__cxx1112basic_stringIcSt11char_traitsIcESaIcEE4sizeEv(ptr noundef nonnull align 8 dereferenceable(32) %0) #2 align 2 {
  %2 = alloca ptr, align 8
  store ptr %0, ptr %2, align 8, !tbaa !9
  %3 = load ptr, ptr %2, align 8
  %4 = getelementptr inbounds nuw %"class.std::__cxx11::basic_string", ptr %3, i32 0, i32 1
  %5 = load i64, ptr %4, align 8, !tbaa !69
  ret i64 %5
}

; Function Attrs: mustprogress nounwind uwtable
define linkonce_odr noundef nonnull align 8 dereferenceable(32) ptr @_ZNSt6vectorINSt7__cxx1112basic_stringIcSt11char_traitsIcESaIcEEESaIS5_EEixEm(ptr noundef nonnull align 8 dereferenceable(24) %0, i64 noundef %1) #2 comdat align 2 {
  %3 = alloca ptr, align 8
  %4 = alloca i64, align 8
  store ptr %0, ptr %3, align 8, !tbaa !20
  store i64 %1, ptr %4, align 8, !tbaa !32
  %5 = load ptr, ptr %3, align 8
  %6 = getelementptr inbounds nuw %"struct.std::_Vector_base", ptr %5, i32 0, i32 0
  %7 = getelementptr inbounds nuw %"struct.std::_Vector_base<std::__cxx11::basic_string<char>, std::allocator<std::__cxx11::basic_string<char>>>::_Vector_impl_data", ptr %6, i32 0, i32 0
  %8 = load ptr, ptr %7, align 8, !tbaa !31
  %9 = load i64, ptr %4, align 8, !tbaa !32
  %10 = getelementptr inbounds nuw %"class.std::__cxx11::basic_string", ptr %8, i64 %9
  ret ptr %10
}

; Function Attrs: mustprogress nounwind uwtable
define linkonce_odr noundef i64 @_ZNKSt6vectorINSt7__cxx1112basic_stringIcSt11char_traitsIcESaIcEEESaIS5_EE4sizeEv(ptr noundef nonnull align 8 dereferenceable(24) %0) #2 comdat align 2 {
  %2 = alloca ptr, align 8
  store ptr %0, ptr %2, align 8, !tbaa !20
  %3 = load ptr, ptr %2, align 8
  %4 = getelementptr inbounds nuw %"struct.std::_Vector_base", ptr %3, i32 0, i32 0
  %5 = getelementptr inbounds nuw %"struct.std::_Vector_base<std::__cxx11::basic_string<char>, std::allocator<std::__cxx11::basic_string<char>>>::_Vector_impl_data", ptr %4, i32 0, i32 1
  %6 = load ptr, ptr %5, align 8, !tbaa !28
  %7 = getelementptr inbounds nuw %"struct.std::_Vector_base", ptr %3, i32 0, i32 0
  %8 = getelementptr inbounds nuw %"struct.std::_Vector_base<std::__cxx11::basic_string<char>, std::allocator<std::__cxx11::basic_string<char>>>::_Vector_impl_data", ptr %7, i32 0, i32 0
  %9 = load ptr, ptr %8, align 8, !tbaa !31
  %10 = ptrtoint ptr %6 to i64
  %11 = ptrtoint ptr %9 to i64
  %12 = sub i64 %10, %11
  %13 = sdiv exact i64 %12, 32
  ret i64 %13
}

; Function Attrs: mustprogress nounwind uwtable
define available_externally noundef zeroext i1 @_ZNKSt7__cxx1112basic_stringIcSt11char_traitsIcESaIcEE5emptyEv(ptr noundef nonnull align 8 dereferenceable(32) %0) #2 align 2 {
  %2 = alloca ptr, align 8
  store ptr %0, ptr %2, align 8, !tbaa !9
  %3 = load ptr, ptr %2, align 8
  %4 = call noundef i64 @_ZNKSt7__cxx1112basic_stringIcSt11char_traitsIcESaIcEE4sizeEv(ptr noundef nonnull align 8 dereferenceable(32) %3) #4
  %5 = icmp eq i64 %4, 0
  ret i1 %5
}

; Function Attrs: mustprogress uwtable
define noundef zeroext i1 @_ZN7rocksdb23TryParseTimeRangeStringERKNSt7__cxx1112basic_stringIcSt11char_traitsIcESaIcEEERiS8_(ptr noundef nonnull align 8 dereferenceable(32) %0, ptr noundef nonnull align 4 dereferenceable(4) %1, ptr noundef nonnull align 4 dereferenceable(4) %2) #3 personality ptr @__gxx_personality_v0 {
  %4 = alloca i1, align 1
  %5 = alloca ptr, align 8
  %6 = alloca ptr, align 8
  %7 = alloca ptr, align 8
  %8 = alloca %"class.std::vector", align 8
  %9 = alloca i32, align 4
  %10 = alloca ptr, align 8
  %11 = alloca i32, align 4
  store ptr %0, ptr %5, align 8, !tbaa !9
  store ptr %1, ptr %6, align 8, !tbaa !75
  store ptr %2, ptr %7, align 8, !tbaa !75
  %12 = load ptr, ptr %5, align 8, !tbaa !9
  %13 = call noundef zeroext i1 @_ZNKSt7__cxx1112basic_stringIcSt11char_traitsIcESaIcEE5emptyEv(ptr noundef nonnull align 8 dereferenceable(32) %12) #4
  br i1 %13, label %14, label %17

14:                                               ; preds = %3
  %15 = load ptr, ptr %6, align 8, !tbaa !75
  store i32 0, ptr %15, align 4, !tbaa !34
  %16 = load ptr, ptr %7, align 8, !tbaa !75
  store i32 0, ptr %16, align 4, !tbaa !34
  store i1 true, ptr %4, align 1
  br label %46

17:                                               ; preds = %3
  call void @llvm.lifetime.start.p0(i64 24, ptr %8) #4
  %18 = load ptr, ptr %5, align 8, !tbaa !9
  call void @_ZN7rocksdb11StringSplitERKNSt7__cxx1112basic_stringIcSt11char_traitsIcESaIcEEEc(ptr dead_on_unwind writable sret(%"class.std::vector") align 8 %8, ptr noundef nonnull align 8 dereferenceable(32) %18, i8 noundef signext 45)
  %19 = call noundef i64 @_ZNKSt6vectorINSt7__cxx1112basic_stringIcSt11char_traitsIcESaIcEEESaIS5_EE4sizeEv(ptr noundef nonnull align 8 dereferenceable(24) %8) #4
  %20 = icmp ne i64 %19, 2
  br i1 %20, label %21, label %22

21:                                               ; preds = %17
  store i1 false, ptr %4, align 1
  store i32 1, ptr %9, align 4
  br label %45

22:                                               ; preds = %17
  %23 = call noundef nonnull align 8 dereferenceable(32) ptr @_ZNSt6vectorINSt7__cxx1112basic_stringIcSt11char_traitsIcESaIcEEESaIS5_EEixEm(ptr noundef nonnull align 8 dereferenceable(24) %8, i64 noundef 0) #4
  %24 = invoke noundef i32 @_ZN7rocksdb24ParseTimeStringToSecondsERKNSt7__cxx1112basic_stringIcSt11char_traitsIcESaIcEEE(ptr noundef nonnull align 8 dereferenceable(32) %23)
          to label %25 unwind label %31

25:                                               ; preds = %22
  %26 = load ptr, ptr %6, align 8, !tbaa !75
  store i32 %24, ptr %26, align 4, !tbaa !34
  %27 = load ptr, ptr %6, align 8, !tbaa !75
  %28 = load i32, ptr %27, align 4, !tbaa !34
  %29 = icmp slt i32 %28, 0
  br i1 %29, label %30, label %35

30:                                               ; preds = %25
  store i1 false, ptr %4, align 1
  store i32 1, ptr %9, align 4
  br label %45

31:                                               ; preds = %35, %22
  %32 = landingpad { ptr, i32 }
          cleanup
  %33 = extractvalue { ptr, i32 } %32, 0
  store ptr %33, ptr %10, align 8
  %34 = extractvalue { ptr, i32 } %32, 1
  store i32 %34, ptr %11, align 4
  call void @_ZNSt6vectorINSt7__cxx1112basic_stringIcSt11char_traitsIcESaIcEEESaIS5_EED2Ev(ptr noundef nonnull align 8 dereferenceable(24) %8) #4
  call void @llvm.lifetime.end.p0(i64 24, ptr %8) #4
  br label %48

35:                                               ; preds = %25
  %36 = call noundef nonnull align 8 dereferenceable(32) ptr @_ZNSt6vectorINSt7__cxx1112basic_stringIcSt11char_traitsIcESaIcEEESaIS5_EEixEm(ptr noundef nonnull align 8 dereferenceable(24) %8, i64 noundef 1) #4
  %37 = invoke noundef i32 @_ZN7rocksdb24ParseTimeStringToSecondsERKNSt7__cxx1112basic_stringIcSt11char_traitsIcESaIcEEE(ptr noundef nonnull align 8 dereferenceable(32) %36)
          to label %38 unwind label %31

38:                                               ; preds = %35
  %39 = load ptr, ptr %7, align 8, !tbaa !75
  store i32 %37, ptr %39, align 4, !tbaa !34
  %40 = load ptr, ptr %7, align 8, !tbaa !75
  %41 = load i32, ptr %40, align 4, !tbaa !34
  %42 = icmp slt i32 %41, 0
  br i1 %42, label %43, label %44

43:                                               ; preds = %38
  store i1 false, ptr %4, align 1
  store i32 1, ptr %9, align 4
  br label %45

44:                                               ; preds = %38
  store i1 true, ptr %4, align 1
  store i32 1, ptr %9, align 4
  br label %45

45:                                               ; preds = %44, %43, %30, %21
  call void @_ZNSt6vectorINSt7__cxx1112basic_stringIcSt11char_traitsIcESaIcEEESaIS5_EED2Ev(ptr noundef nonnull align 8 dereferenceable(24) %8) #4
  call void @llvm.lifetime.end.p0(i64 24, ptr %8) #4
  br label %46

46:                                               ; preds = %45, %14
  %47 = load i1, ptr %4, align 1
  ret i1 %47

48:                                               ; preds = %31
  %49 = load ptr, ptr %10, align 8
  %50 = load i32, ptr %11, align 4
  %51 = insertvalue { ptr, i32 } poison, ptr %49, 0
  %52 = insertvalue { ptr, i32 } %51, i32 %50, 1
  resume { ptr, i32 } %52
}