; Function Attrs: mustprogress uwtable
define noundef zeroext i1 @_ZN7rocksdb23TryParseTimeRangeStringERKNSt7__cxx1112basic_stringIcSt11char_traitsIcESaIcEEERiS8_(ptr noundef nonnull align 8 dereferenceable(32) %0, ptr noundef nonnull writeonly align 4 captures(none) dereferenceable(4) %1, ptr noundef nonnull writeonly align 4 captures(none) dereferenceable(4) %2) local_unnamed_addr #3 personality ptr @__gxx_personality_v0 {
  %4 = alloca %"class.std::vector", align 8
  %5 = getelementptr inbounds nuw i8, ptr %0, i64 8
  %6 = load i64, ptr %5, align 8, !tbaa !10
  %7 = icmp eq i64 %6, 0
  br i1 %7, label %8, label %9

8:                                                ; preds = %3
  store i32 0, ptr %1, align 4, !tbaa !50
  store i32 0, ptr %2, align 4, !tbaa !50
  br label %46

9:                                                ; preds = %3
  call void @llvm.lifetime.start.p0(i64 24, ptr nonnull %4) #26
  call void @_ZN7rocksdb11StringSplitERKNSt7__cxx1112basic_stringIcSt11char_traitsIcESaIcEEEc(ptr dead_on_unwind nonnull writable sret(%"class.std::vector") align 8 %4, ptr noundef nonnull align 8 dereferenceable(32) %0, i8 noundef signext 45)
  %10 = getelementptr inbounds nuw i8, ptr %4, i64 8
  %11 = load ptr, ptr %10, align 8, !tbaa !26
  %12 = load ptr, ptr %4, align 8, !tbaa !34
  %13 = ptrtoint ptr %11 to i64
  %14 = ptrtoint ptr %12 to i64
  %15 = sub i64 %13, %14
  %.not = icmp eq i64 %15, 64
  br i1 %.not, label %16, label %27

16:                                               ; preds = %9
  %17 = invoke noundef i32 @_ZN7rocksdb24ParseTimeStringToSecondsERKNSt7__cxx1112basic_stringIcSt11char_traitsIcESaIcEEE(ptr noundef nonnull align 8 dereferenceable(32) %12)
          to label %18 unwind label %20

18:                                               ; preds = %16
  store i32 %17, ptr %1, align 4, !tbaa !50
  %19 = icmp slt i32 %17, 0
  %.pre10 = load ptr, ptr %4, align 8, !tbaa !34
  br i1 %19, label %27, label %22

20:                                               ; preds = %22, %16
  %21 = landingpad { ptr, i32 }
          cleanup
  call void @_ZNSt6vectorINSt7__cxx1112basic_stringIcSt11char_traitsIcESaIcEEESaIS5_EED2Ev(ptr noundef nonnull align 8 dereferenceable(24) %4) #26
  call void @llvm.lifetime.end.p0(i64 24, ptr nonnull %4) #26
  resume { ptr, i32 } %21

22:                                               ; preds = %18
  %23 = getelementptr inbounds nuw i8, ptr %.pre10, i64 32
  %24 = invoke noundef i32 @_ZN7rocksdb24ParseTimeStringToSecondsERKNSt7__cxx1112basic_stringIcSt11char_traitsIcESaIcEEE(ptr noundef nonnull align 8 dereferenceable(32) %23)
          to label %25 unwind label %20

25:                                               ; preds = %22
  store i32 %24, ptr %2, align 4, !tbaa !50
  %26 = icmp sgt i32 %24, -1
  %.pre = load ptr, ptr %4, align 8, !tbaa !34
  br label %27

27:                                               ; preds = %25, %18, %9
  %28 = phi ptr [ %12, %9 ], [ %.pre10, %18 ], [ %.pre, %25 ]
  %.1 = phi i1 [ false, %9 ], [ false, %18 ], [ %26, %25 ]
  %29 = load ptr, ptr %10, align 8, !tbaa !26
  %.not4.i.i.i.i = icmp eq ptr %28, %29
  br i1 %.not4.i.i.i.i, label %_ZSt8_DestroyIPNSt7__cxx1112basic_stringIcSt11char_traitsIcESaIcEEES5_EvT_S7_RSaIT0_E.exit.i, label %.lr.ph.i.i.i.i

.lr.ph.i.i.i.i:                                   ; preds = %27, %_ZSt8_DestroyINSt7__cxx1112basic_stringIcSt11char_traitsIcESaIcEEEEvPT_.exit.i.i.i.i
  %.05.i.i.i.i = phi ptr [ %38, %_ZSt8_DestroyINSt7__cxx1112basic_stringIcSt11char_traitsIcESaIcEEEEvPT_.exit.i.i.i.i ], [ %28, %27 ]
  %30 = load ptr, ptr %.05.i.i.i.i, align 8, !tbaa !30
  %31 = getelementptr inbounds nuw i8, ptr %.05.i.i.i.i, i64 16
  %32 = icmp eq ptr %30, %31
  br i1 %32, label %_ZNKSt7__cxx1112basic_stringIcSt11char_traitsIcESaIcEE11_M_is_localEv.exit.thread.i.i.i.i.i.i.i, label %_ZNKSt7__cxx1112basic_stringIcSt11char_traitsIcESaIcEE11_M_is_localEv.exit.i.i.i.i.i.i.i

_ZNKSt7__cxx1112basic_stringIcSt11char_traitsIcESaIcEE11_M_is_localEv.exit.thread.i.i.i.i.i.i.i: ; preds = %.lr.ph.i.i.i.i
  %33 = getelementptr inbounds nuw i8, ptr %.05.i.i.i.i, i64 8
  %34 = load i64, ptr %33, align 8, !tbaa !10
  %35 = icmp ult i64 %34, 16
  call void @llvm.assume(i1 %35)
  br label %_ZSt8_DestroyINSt7__cxx1112basic_stringIcSt11char_traitsIcESaIcEEEEvPT_.exit.i.i.i.i

_ZNKSt7__cxx1112basic_stringIcSt11char_traitsIcESaIcEE11_M_is_localEv.exit.i.i.i.i.i.i.i: ; preds = %.lr.ph.i.i.i.i
  %36 = load i64, ptr %31, align 8, !tbaa !13
  %37 = add i64 %36, 1
  call void @_ZdlPvm(ptr noundef %30, i64 noundef %37) #27
  br label %_ZSt8_DestroyINSt7__cxx1112basic_stringIcSt11char_traitsIcESaIcEEEEvPT_.exit.i.i.i.i

_ZSt8_DestroyINSt7__cxx1112basic_stringIcSt11char_traitsIcESaIcEEEEvPT_.exit.i.i.i.i: ; preds = %_ZNKSt7__cxx1112basic_stringIcSt11char_traitsIcESaIcEE11_M_is_localEv.exit.i.i.i.i.i.i.i, %_ZNKSt7__cxx1112basic_stringIcSt11char_traitsIcESaIcEE11_M_is_localEv.exit.thread.i.i.i.i.i.i.i
  %38 = getelementptr inbounds nuw i8, ptr %.05.i.i.i.i, i64 32
  %.not.i.i.i.i = icmp eq ptr %38, %29
  br i1 %.not.i.i.i.i, label %_ZSt8_DestroyIPNSt7__cxx1112basic_stringIcSt11char_traitsIcESaIcEEES5_EvT_S7_RSaIT0_E.exitthread-pre-split.i, label %.lr.ph.i.i.i.i, !llvm.loop !35

_ZSt8_DestroyIPNSt7__cxx1112basic_stringIcSt11char_traitsIcESaIcEEES5_EvT_S7_RSaIT0_E.exitthread-pre-split.i: ; preds = %_ZSt8_DestroyINSt7__cxx1112basic_stringIcSt11char_traitsIcESaIcEEEEvPT_.exit.i.i.i.i
  %.pr.i = load ptr, ptr %4, align 8, !tbaa !34
  br label %_ZSt8_DestroyIPNSt7__cxx1112basic_stringIcSt11char_traitsIcESaIcEEES5_EvT_S7_RSaIT0_E.exit.i

_ZSt8_DestroyIPNSt7__cxx1112basic_stringIcSt11char_traitsIcESaIcEEES5_EvT_S7_RSaIT0_E.exit.i: ; preds = %_ZSt8_DestroyIPNSt7__cxx1112basic_stringIcSt11char_traitsIcESaIcEEES5_EvT_S7_RSaIT0_E.exitthread-pre-split.i, %27
  %39 = phi ptr [ %.pr.i, %_ZSt8_DestroyIPNSt7__cxx1112basic_stringIcSt11char_traitsIcESaIcEEES5_EvT_S7_RSaIT0_E.exitthread-pre-split.i ], [ %28, %27 ]
  %.not.i.i.i = icmp eq ptr %39, null
  br i1 %.not.i.i.i, label %_ZNSt6vectorINSt7__cxx1112basic_stringIcSt11char_traitsIcESaIcEEESaIS5_EED2Ev.exit, label %40

40:                                               ; preds = %_ZSt8_DestroyIPNSt7__cxx1112basic_stringIcSt11char_traitsIcESaIcEEES5_EvT_S7_RSaIT0_E.exit.i
  %41 = getelementptr inbounds nuw i8, ptr %4, i64 16
  %42 = load ptr, ptr %41, align 8, !tbaa !29
  %43 = ptrtoint ptr %42 to i64
  %44 = ptrtoint ptr %39 to i64
  %45 = sub i64 %43, %44
  call void @_ZdlPvm(ptr noundef nonnull %39, i64 noundef %45) #27
  br label %_ZNSt6vectorINSt7__cxx1112basic_stringIcSt11char_traitsIcESaIcEEESaIS5_EED2Ev.exit

_ZNSt6vectorINSt7__cxx1112basic_stringIcSt11char_traitsIcESaIcEEESaIS5_EED2Ev.exit: ; preds = %_ZSt8_DestroyIPNSt7__cxx1112basic_stringIcSt11char_traitsIcESaIcEEES5_EvT_S7_RSaIT0_E.exit.i, %40
  call void @llvm.lifetime.end.p0(i64 24, ptr nonnull %4) #26
  br label %46

46:                                               ; preds = %_ZNSt6vectorINSt7__cxx1112basic_stringIcSt11char_traitsIcESaIcEEESaIS5_EED2Ev.exit, %8
  %.0 = phi i1 [ true, %8 ], [ %.1, %_ZNSt6vectorINSt7__cxx1112basic_stringIcSt11char_traitsIcESaIcEEESaIS5_EED2Ev.exit ]
  ret i1 %.0
}